target datalayout = "e-m:e-p270:32:32-p271:32:32-p272:64:64-i64:64-i128:128-f80:128-n8:16:32:64-S128"
target triple = "x86_64-pc-linux-gnu"

%"class.LIEF::MachO::BuildToolVersion" = type { %"class.LIEF::Object", i32, %"struct.std::array" }
%"class.LIEF::Object" = type { ptr }
%"struct.std::array" = type { [3 x i32] }
%"struct.LIEF::MachO::details::build_tool_version" = type { i32, i32 }

; Function Attrs: mustprogress nounwind uwtable
define void @_ZN4LIEF5MachO16BuildToolVersionC2ERKNS0_7details18build_tool_versionE(ptr noundef nonnull align 8 dereferenceable(24) %0, ptr noundef nonnull align 4 dereferenceable(8) %1) unnamed_addr #0 align 2 {
  %3 = alloca ptr, align 8
  %4 = alloca ptr, align 8
  store ptr %0, ptr %3, align 8, !tbaa !3
  store ptr %1, ptr %4, align 8, !tbaa !8
  %5 = load ptr, ptr %3, align 8
  call void @_ZN4LIEF6ObjectC2Ev(ptr noundef nonnull align 8 dereferenceable(8) %5)
  store ptr getelementptr inbounds inrange(-16, 40) ({ [7 x ptr] }, ptr @_ZTVN4LIEF5MachO16BuildToolVersionE, i32 0, i32 0, i32 2), ptr %5, align 8, !tbaa !10
  %6 = getelementptr inbounds nuw %"class.LIEF::MachO::BuildToolVersion", ptr %5, i32 0, i32 1
  %7 = load ptr, ptr %4, align 8, !tbaa !8
  %8 = getelementptr inbounds nuw %"struct.LIEF::MachO::details::build_tool_version", ptr %7, i32 0, i32 0
  %9 = load i32, ptr %8, align 4, !tbaa !12
  store i32 %9, ptr %6, align 8, !tbaa !15
  %10 = getelementptr inbounds nuw %"class.LIEF::MachO::BuildToolVersion", ptr %5, i32 0, i32 2
  %11 = getelementptr inbounds nuw %"struct.std::array", ptr %10, i32 0, i32 0
  %12 = load ptr, ptr %4, align 8, !tbaa !8
  %13 = getelementptr inbounds nuw %"struct.LIEF::MachO::details::build_tool_version", ptr %12, i32 0, i32 1
  %14 = load i32, ptr %13, align 4, !tbaa !20
  %15 = lshr i32 %14, 16
  %16 = and i32 %15, 65535
  store i32 %16, ptr %11, align 4, !tbaa !21
  %17 = getelementptr inbounds i32, ptr %11, i64 1
  %18 = load ptr, ptr %4, align 8, !tbaa !8
  %19 = getelementptr inbounds nuw %"struct.LIEF::MachO::details::build_tool_version", ptr %18, i32 0, i32 1
  %20 = load i32, ptr %19, align 4, !tbaa !20
  %21 = lshr i32 %20, 8
  %22 = and i32 %21, 255
  store i32 %22, ptr %17, align 4, !tbaa !21
  %23 = getelementptr inbounds i32, ptr %11, i64 2
  %24 = load ptr, ptr %4, align 8, !tbaa !8
  %25 = getelementptr inbounds nuw %"struct.LIEF::MachO::details::build_tool_version", ptr %24, i32 0, i32 1
  %26 = load i32, ptr %25, align 4, !tbaa !20
  %27 = lshr i32 %26, 0
  %28 = and i32 %27, 255
  store i32 %28, ptr %23, align 4, !tbaa !21
  ret void
}