; Function Attrs: mustprogress nounwind uwtable
define void @_ZN4LIEF5MachO16BuildToolVersionC2ERKNS0_7details18build_tool_versionE(ptr noundef nonnull align 8 dereferenceable(24) %0, ptr noundef nonnull readonly align 4 captures(none) dereferenceable(8) %1) unnamed_addr #0 align 2 {
  tail call void @_ZN4LIEF6ObjectC2Ev(ptr noundef nonnull align 8 dereferenceable(8) %0) #22
  store ptr getelementptr inbounds nuw inrange(-16, 40) (i8, ptr @_ZTVN4LIEF5MachO16BuildToolVersionE, i64 16), ptr %0, align 8, !tbaa !3
  %3 = getelementptr inbounds nuw i8, ptr %0, i64 8
  %4 = load i32, ptr %1, align 4, !tbaa !6
  store i32 %4, ptr %3, align 8, !tbaa !10
  %5 = getelementptr inbounds nuw i8, ptr %0, i64 12
  %6 = getelementptr inbounds nuw i8, ptr %1, i64 4
  %7 = load i32, ptr %6, align 4, !tbaa !15
  %8 = lshr i32 %7, 16
  store i32 %8, ptr %5, align 4, !tbaa !16
  %9 = getelementptr inbounds nuw i8, ptr %0, i64 16
  %10 = load i32, ptr %6, align 4, !tbaa !15
  %11 = lshr i32 %10, 8
  %12 = and i32 %11, 255
  store i32 %12, ptr %9, align 8, !tbaa !16
  %13 = getelementptr inbounds nuw i8, ptr %0, i64 20
  %14 = load i32, ptr %6, align 4, !tbaa !15
  %15 = and i32 %14, 255
  store i32 %15, ptr %13, align 4, !tbaa !16
  ret void
}